target datalayout = "e-m:e-p270:32:32-p271:32:32-p272:64:64-i64:64-i128:128-f80:128-n8:16:32:64-S128"
target triple = "x86_64-pc-linux-gnu"

%"class.llvm::SmallVectorBase" = type { ptr, i32, i32 }
%"class.clang::CodeGen::EHScopeStack" = type { ptr, ptr, ptr, %"class.clang::CodeGen::EHScopeStack::stable_iterator", %"class.clang::CodeGen::EHScopeStack::stable_iterator", ptr, %"class.llvm::SmallVector.59" }
%"class.llvm::SmallVector.59" = type { %"class.llvm::SmallVectorImpl.60", %"struct.llvm::SmallVectorStorage.63" }
%"class.llvm::SmallVectorImpl.60" = type { %"class.llvm::SmallVectorTemplateBase.61" }
%"class.llvm::SmallVectorTemplateBase.61" = type { %"class.llvm::SmallVectorTemplateCommon.62" }
%"class.llvm::SmallVectorTemplateCommon.62" = type { %"class.llvm::SmallVectorBase" }
%"struct.llvm::SmallVectorStorage.63" = type { [256 x i8] }
%"class.clang::CodeGen::EHScopeStack::stable_iterator" = type { i64 }
%"class.clang::CodeGen::EHScopeStack::iterator" = type { ptr }
%"class.clang::CodeGen::EHScope" = type <{ ptr, ptr, %"class.clang::CodeGen::EHScopeStack::stable_iterator", %union.anon.194, [4 x i8] }>
%union.anon.194 = type { %"class.clang::CodeGen::EHScope::CatchBitFields" }
%"class.clang::CodeGen::EHScope::CatchBitFields" = type { i32 }

; Function Attrs: mustprogress nounwind uwtable
define linkonce_odr hidden noundef i64 @_ZN4llvm10divideCeilEmm(i64 noundef %0, i64 noundef %1) #0 comdat {
  %3 = alloca i64, align 8
  %4 = alloca i64, align 8
  %5 = alloca i64, align 8
  store i64 %0, ptr %3, align 8
  store i64 %1, ptr %4, align 8
  %6 = load i64, ptr %3, align 8
  %7 = icmp ne i64 %6, 0
  %8 = zext i1 %7 to i64
  store i64 %8, ptr %5, align 8
  %9 = load i64, ptr %3, align 8
  %10 = load i64, ptr %5, align 8
  %11 = sub i64 %9, %10
  %12 = load i64, ptr %4, align 8
  %13 = udiv i64 %11, %12
  %14 = load i64, ptr %5, align 8
  %15 = add i64 %13, %14
  ret i64 %15
}

; Function Attrs: mustprogress nounwind uwtable
define linkonce_odr hidden noundef nonnull align 8 dereferenceable(28) ptr @_ZN4llvm16cast_convert_valIN5clang7CodeGen13EHFilterScopeENS2_7EHScopeES4_E4doitERKS4_(ptr noundef nonnull align 8 dereferenceable(28) %0) #0 comdat align 2 {
  %2 = alloca ptr, align 8
  store ptr %0, ptr %2, align 8
  %3 = load ptr, ptr %2, align 8
  ret ptr %3
}

; Function Attrs: mustprogress nounwind uwtable
define linkonce_odr hidden noundef i64 @_ZN4llvm7alignToEmm(i64 noundef %0, i64 noundef %1) #0 comdat {
  %3 = alloca i64, align 8
  %4 = alloca i64, align 8
  %5 = alloca i64, align 8
  store i64 %0, ptr %3, align 8
  store i64 %1, ptr %4, align 8
  %6 = load i64, ptr %3, align 8
  %7 = load i64, ptr %4, align 8
  %8 = call noundef i64 @_ZN4llvm10divideCeilEmm(i64 noundef %6, i64 noundef %7)
  store i64 %8, ptr %5, align 8
  %9 = load i64, ptr %5, align 8
  %10 = load i64, ptr %4, align 8
  %11 = mul i64 %9, %10
  ret i64 %11
}

; Function Attrs: mustprogress nounwind uwtable
define linkonce_odr hidden noundef nonnull align 8 dereferenceable(28) ptr @_ZN4llvm8CastInfoIN5clang7CodeGen13EHFilterScopeENS2_7EHScopeEvE6doCastERKS4_(ptr noundef nonnull align 8 dereferenceable(28) %0) #0 comdat align 2 {
  %2 = alloca ptr, align 8
  store ptr %0, ptr %2, align 8
  %3 = load ptr, ptr %2, align 8
  %4 = call noundef nonnull align 8 dereferenceable(28) ptr @_ZN4llvm16cast_convert_valIN5clang7CodeGen13EHFilterScopeENS2_7EHScopeES4_E4doitERKS4_(ptr noundef nonnull align 8 dereferenceable(28) %3)
  ret ptr %4
}

; Function Attrs: mustprogress nounwind uwtable
define linkonce_odr hidden noundef ptr @_ZNK5clang7CodeGen12EHScopeStack8iterator3getEv(ptr noundef nonnull align 8 dereferenceable(8) %0) #0 comdat align 2 {
  %2 = alloca ptr, align 8
  store ptr %0, ptr %2, align 8
  %3 = load ptr, ptr %2, align 8
  %4 = getelementptr inbounds nuw %"class.clang::CodeGen::EHScopeStack::iterator", ptr %3, i32 0, i32 0
  %5 = load ptr, ptr %4, align 8
  ret ptr %5
}

; Function Attrs: mustprogress nounwind uwtable
define linkonce_odr hidden void @_ZN5clang7CodeGen12EHScopeStack8iteratorC2EPc(ptr noundef nonnull align 8 dereferenceable(8) %0, ptr noundef %1) unnamed_addr #0 comdat align 2 {
  %3 = alloca ptr, align 8
  %4 = alloca ptr, align 8
  store ptr %0, ptr %3, align 8
  store ptr %1, ptr %4, align 8
  %5 = load ptr, ptr %3, align 8
  %6 = getelementptr inbounds nuw %"class.clang::CodeGen::EHScopeStack::iterator", ptr %5, i32 0, i32 0
  %7 = load ptr, ptr %4, align 8
  store ptr %7, ptr %6, align 8
  ret void
}

; Function Attrs: mustprogress nounwind uwtable
define linkonce_odr hidden i64 @_ZNK5clang7CodeGen7EHScope19getEnclosingEHScopeEv(ptr noundef nonnull align 8 dereferenceable(28) %0) #0 comdat align 2 {
  %2 = alloca %"class.clang::CodeGen::EHScopeStack::stable_iterator", align 8
  %3 = alloca ptr, align 8
  store ptr %0, ptr %3, align 8
  %4 = load ptr, ptr %3, align 8
  %5 = getelementptr inbounds nuw %"class.clang::CodeGen::EHScope", ptr %4, i32 0, i32 2
  call void @llvm.memcpy.p0.p0.i64(ptr align 8 %2, ptr align 8 %5, i64 8, i1 false)
  %6 = getelementptr inbounds nuw %"class.clang::CodeGen::EHScopeStack::stable_iterator", ptr %2, i32 0, i32 0
  %7 = load i64, ptr %6, align 8
  ret i64 %7
}

; Function Attrs: mustprogress nounwind uwtable
define dso_local void @_ZN5clang7CodeGen12EHScopeStack10deallocateEm(ptr noundef nonnull align 8 dereferenceable(320) %0, i64 noundef %1) #0 align 2 {
  %3 = alloca ptr, align 8
  %4 = alloca i64, align 8
  store ptr %0, ptr %3, align 8
  store i64 %1, ptr %4, align 8
  %5 = load ptr, ptr %3, align 8
  %6 = load i64, ptr %4, align 8
  %7 = call noundef i64 @_ZN4llvm7alignToEmm(i64 noundef %6, i64 noundef 8)
  %8 = getelementptr inbounds nuw %"class.clang::CodeGen::EHScopeStack", ptr %5, i32 0, i32 2
  %9 = load ptr, ptr %8, align 8
  %10 = getelementptr inbounds i8, ptr %9, i64 %7
  store ptr %10, ptr %8, align 8
  ret void
}

; Function Attrs: mustprogress nounwind uwtable
define linkonce_odr hidden noundef i64 @_ZN5clang7CodeGen13EHFilterScope20getSizeForNumFiltersEj(i32 noundef %0) #0 comdat align 2 {
  %2 = alloca i32, align 4
  store i32 %0, ptr %2, align 4
  %3 = load i32, ptr %2, align 4
  %4 = zext i32 %3 to i64
  %5 = mul i64 %4, 8
  %6 = add i64 32, %5
  ret i64 %6
}

; Function Attrs: mustprogress nounwind uwtable
define linkonce_odr hidden noundef i32 @_ZNK5clang7CodeGen13EHFilterScope13getNumFiltersEv(ptr noundef nonnull align 8 dereferenceable(28) %0) #0 comdat align 2 {
  %2 = alloca ptr, align 8
  store ptr %0, ptr %2, align 8
  %3 = load ptr, ptr %2, align 8
  %4 = getelementptr inbounds nuw %"class.clang::CodeGen::EHScope", ptr %3, i32 0, i32 3
  %5 = load i32, ptr %4, align 8
  %6 = lshr i32 %5, 3
  ret i32 %6
}

; Function Attrs: mustprogress nounwind uwtable
define linkonce_odr hidden noundef nonnull align 8 dereferenceable(28) ptr @_ZN4llvm4castIN5clang7CodeGen13EHFilterScopeENS2_7EHScopeEEEDcRT0_(ptr noundef nonnull align 8 dereferenceable(28) %0) #0 comdat {
  %2 = alloca ptr, align 8
  store ptr %0, ptr %2, align 8
  %3 = load ptr, ptr %2, align 8
  %4 = call noundef nonnull align 8 dereferenceable(28) ptr @_ZN4llvm8CastInfoIN5clang7CodeGen13EHFilterScopeENS2_7EHScopeEvE6doCastERKS4_(ptr noundef nonnull align 8 dereferenceable(28) %3)
  ret ptr %4
}

; Function Attrs: mustprogress nounwind uwtable
define linkonce_odr hidden noundef nonnull align 8 dereferenceable(28) ptr @_ZNK5clang7CodeGen12EHScopeStack8iteratordeEv(ptr noundef nonnull align 8 dereferenceable(8) %0) #0 comdat align 2 {
  %2 = alloca ptr, align 8
  store ptr %0, ptr %2, align 8
  %3 = load ptr, ptr %2, align 8
  %4 = call noundef ptr @_ZNK5clang7CodeGen12EHScopeStack8iterator3getEv(ptr noundef nonnull align 8 dereferenceable(8) %3)
  ret ptr %4
}

; Function Attrs: mustprogress nounwind uwtable
define linkonce_odr hidden ptr @_ZNK5clang7CodeGen12EHScopeStack5beginEv(ptr noundef nonnull align 8 dereferenceable(320) %0) #0 comdat align 2 {
  %2 = alloca %"class.clang::CodeGen::EHScopeStack::iterator", align 8
  %3 = alloca ptr, align 8
  store ptr %0, ptr %3, align 8
  %4 = load ptr, ptr %3, align 8
  %5 = getelementptr inbounds nuw %"class.clang::CodeGen::EHScopeStack", ptr %4, i32 0, i32 2
  %6 = load ptr, ptr %5, align 8
  call void @_ZN5clang7CodeGen12EHScopeStack8iteratorC2EPc(ptr noundef nonnull align 8 dereferenceable(8) %2, ptr noundef %6)
  %7 = getelementptr inbounds nuw %"class.clang::CodeGen::EHScopeStack::iterator", ptr %2, i32 0, i32 0
  %8 = load ptr, ptr %7, align 8
  ret ptr %8
}

; Function Attrs: mustprogress nounwind uwtable
define dso_local void @_ZN5clang7CodeGen12EHScopeStack9popFilterEv(ptr noundef nonnull align 8 dereferenceable(320) %0) #0 align 2 {
  %2 = alloca ptr, align 8
  %3 = alloca ptr, align 8
  %4 = alloca %"class.clang::CodeGen::EHScopeStack::iterator", align 8
  %5 = alloca %"class.clang::CodeGen::EHScopeStack::stable_iterator", align 8
  store ptr %0, ptr %2, align 8
  %6 = load ptr, ptr %2, align 8
  %7 = call ptr @_ZNK5clang7CodeGen12EHScopeStack5beginEv(ptr noundef nonnull align 8 dereferenceable(320) %6)
  %8 = getelementptr inbounds nuw %"class.clang::CodeGen::EHScopeStack::iterator", ptr %4, i32 0, i32 0
  store ptr %7, ptr %8, align 8
  %9 = call noundef nonnull align 8 dereferenceable(28) ptr @_ZNK5clang7CodeGen12EHScopeStack8iteratordeEv(ptr noundef nonnull align 8 dereferenceable(8) %4)
  %10 = call noundef nonnull align 8 dereferenceable(28) ptr @_ZN4llvm4castIN5clang7CodeGen13EHFilterScopeENS2_7EHScopeEEEDcRT0_(ptr noundef nonnull align 8 dereferenceable(28) %9)
  store ptr %10, ptr %3, align 8
  %11 = load ptr, ptr %3, align 8
  %12 = call noundef i32 @_ZNK5clang7CodeGen13EHFilterScope13getNumFiltersEv(ptr noundef nonnull align 8 dereferenceable(28) %11)
  %13 = call noundef i64 @_ZN5clang7CodeGen13EHFilterScope20getSizeForNumFiltersEj(i32 noundef %12)
  call void @_ZN5clang7CodeGen12EHScopeStack10deallocateEm(ptr noundef nonnull align 8 dereferenceable(320) %6, i64 noundef %13)
  %14 = load ptr, ptr %3, align 8
  %15 = call i64 @_ZNK5clang7CodeGen7EHScope19getEnclosingEHScopeEv(ptr noundef nonnull align 8 dereferenceable(28) %14)
  %16 = getelementptr inbounds nuw %"class.clang::CodeGen::EHScopeStack::stable_iterator", ptr %5, i32 0, i32 0
  store i64 %15, ptr %16, align 8
  %17 = getelementptr inbounds nuw %"class.clang::CodeGen::EHScopeStack", ptr %6, i32 0, i32 4
  call void @llvm.memcpy.p0.p0.i64(ptr align 8 %17, ptr align 8 %5, i64 8, i1 false)
  ret void
}