; Function Attrs: mustprogress nofree norecurse nosync nounwind willreturn memory(read, argmem: readwrite, inaccessiblemem: none) uwtable
define dso_local void @_ZN5clang7CodeGen12EHScopeStack9popFilterEv(ptr nocapture noundef nonnull align 8 dereferenceable(320) %0) local_unnamed_addr #7 align 2 {
  %2 = getelementptr inbounds nuw i8, ptr %0, i64 16
  %3 = load ptr, ptr %2, align 8
  %4 = getelementptr inbounds nuw i8, ptr %3, i64 24
  %5 = load i32, ptr %4, align 8
  %6 = and i32 %5, -8
  %7 = zext i32 %6 to i64
  %8 = add nuw nsw i64 %7, 39
  %9 = and i64 %8, 8589934584
  %10 = getelementptr inbounds i8, ptr %3, i64 %9
  store ptr %10, ptr %2, align 8
  %11 = getelementptr inbounds nuw i8, ptr %3, i64 16
  %.sroa.0.0.copyload.i = load i64, ptr %11, align 8
  %12 = getelementptr inbounds nuw i8, ptr %0, i64 32
  store i64 %.sroa.0.0.copyload.i, ptr %12, align 8
  ret void
}